; Function Attrs: nounwind uwtable
define ptr @l_Lean_Meta_isRefl_x3f___boxed(ptr noundef %0) local_unnamed_addr #0 {
  %2 = load ptr, ptr @l_Lean_Meta_mkEqRefl___closed__2, align 8, !tbaa !10
  %3 = tail call zeroext i8 @l_Lean_Expr_isAppOfArity(ptr noundef %0, ptr noundef %2, ptr noundef nonnull inttoptr (i64 5 to ptr)) #5
  %4 = icmp eq i8 %3, 0
  br i1 %4, label %l_Lean_Meta_isRefl_x3f.exit, label %5

5:                                                ; preds = %1
  %6 = tail call ptr @l_Lean_Expr_appArg_x21(ptr noundef %0) #5
  tail call void @lean_inc_heartbeat() #5
  %7 = tail call noalias ptr @mi_malloc_small(i64 noundef 16) #5
  %8 = icmp eq ptr %7, null
  br i1 %8, label %9, label %lean_alloc_ctor.exit.i

9:                                                ; preds = %5
  tail call void @lean_internal_panic_out_of_memory() #6
  unreachable

lean_alloc_ctor.exit.i:                           ; preds = %5
  %10 = getelementptr inbounds nuw i8, ptr %7, i64 4
  store i32 1, ptr %7, align 4, !tbaa !4
  store i32 16842768, ptr %10, align 4
  %11 = getelementptr inbounds nuw i8, ptr %7, i64 8
  store ptr %6, ptr %11, align 8, !tbaa !10
  br label %l_Lean_Meta_isRefl_x3f.exit

l_Lean_Meta_isRefl_x3f.exit:                      ; preds = %1, %lean_alloc_ctor.exit.i
  %.0.i = phi ptr [ %7, %lean_alloc_ctor.exit.i ], [ inttoptr (i64 1 to ptr), %1 ]
  %12 = ptrtoint ptr %0 to i64
  %13 = and i64 %12, 1
  %.not = icmp eq i64 %13, 0
  br i1 %.not, label %14, label %lean_dec.exit

14:                                               ; preds = %l_Lean_Meta_isRefl_x3f.exit
  %15 = load i32, ptr %0, align 4, !tbaa !4
  %16 = icmp sgt i32 %15, 1
  br i1 %16, label %17, label %19, !prof !9

17:                                               ; preds = %14
  %18 = add nsw i32 %15, -1
  store i32 %18, ptr %0, align 4, !tbaa !4
  br label %lean_dec.exit

19:                                               ; preds = %14
  %.not.i = icmp eq i32 %15, 0
  br i1 %.not.i, label %lean_dec.exit, label %20

20:                                               ; preds = %19
  tail call void @lean_dec_ref_cold(ptr noundef nonnull %0) #5
  br label %lean_dec.exit

lean_dec.exit:                                    ; preds = %20, %19, %17, %l_Lean_Meta_isRefl_x3f.exit
  ret ptr %.0.i
}